; Function Attrs: mustprogress nofree norecurse nosync nounwind willreturn memory(argmem: write) uwtable
define hidden void @PyExpat_XML_SetExternalEntityRefHandlerArg(ptr noundef %0, ptr noundef %1) local_unnamed_addr #3 {
  %3 = icmp eq ptr %0, null
  br i1 %3, label %5, label %.sink.split

.sink.split:                                      ; preds = %2
  %.not = icmp eq ptr %1, null
  %4 = getelementptr inbounds nuw i8, ptr %0, i64 248
  %. = select i1 %.not, ptr %0, ptr %1
  store ptr %., ptr %4, align 8, !tbaa !103
  br label %5

5:                                                ; preds = %.sink.split, %2
  ret void
}